target datalayout = "e-m:e-p270:32:32-p271:32:32-p272:64:64-i64:64-i128:128-f80:128-n8:16:32:64-S128"
target triple = "x86_64-pc-linux-gnu"

@_ZN7TypeInt3INTE = external global ptr, align 8
@_ZN8TypeLong4LONGE = external global ptr, align 8
@_ZN4Type4HALFE = external global ptr, align 8
@_ZN7TypePtr7NOTNULLE = external global ptr, align 8

; Function Attrs: mustprogress nounwind uwtable
define hidden noundef ptr @_ZN11OptoRuntime23montgomeryMultiply_TypeEv() #1 align 2 {
  %1 = alloca i32, align 4
  %2 = alloca i32, align 4
  %3 = alloca ptr, align 8
  %4 = alloca i32, align 4
  %5 = alloca ptr, align 8
  %6 = alloca ptr, align 8
  store i32 7, ptr %1, align 4
  %7 = load i32, ptr %1, align 4
  store i32 %7, ptr %2, align 4
  %8 = load i32, ptr %2, align 4
  %9 = call noundef ptr @_ZN9TypeTuple6fieldsEj(i32 noundef %8)
  store ptr %9, ptr %3, align 8
  store i32 5, ptr %4, align 4
  %10 = load ptr, ptr @_ZN7TypePtr7NOTNULLE, align 8
  %11 = load ptr, ptr %3, align 8
  %12 = load i32, ptr %4, align 4
  %13 = add nsw i32 %12, 1
  store i32 %13, ptr %4, align 4
  %14 = sext i32 %12 to i64
  %15 = getelementptr inbounds ptr, ptr %11, i64 %14
  store ptr %10, ptr %15, align 8
  %16 = load ptr, ptr @_ZN7TypePtr7NOTNULLE, align 8
  %17 = load ptr, ptr %3, align 8
  %18 = load i32, ptr %4, align 4
  %19 = add nsw i32 %18, 1
  store i32 %19, ptr %4, align 4
  %20 = sext i32 %18 to i64
  %21 = getelementptr inbounds ptr, ptr %17, i64 %20
  store ptr %16, ptr %21, align 8
  %22 = load ptr, ptr @_ZN7TypePtr7NOTNULLE, align 8
  %23 = load ptr, ptr %3, align 8
  %24 = load i32, ptr %4, align 4
  %25 = add nsw i32 %24, 1
  store i32 %25, ptr %4, align 4
  %26 = sext i32 %24 to i64
  %27 = getelementptr inbounds ptr, ptr %23, i64 %26
  store ptr %22, ptr %27, align 8
  %28 = load ptr, ptr @_ZN7TypeInt3INTE, align 8
  %29 = load ptr, ptr %3, align 8
  %30 = load i32, ptr %4, align 4
  %31 = add nsw i32 %30, 1
  store i32 %31, ptr %4, align 4
  %32 = sext i32 %30 to i64
  %33 = getelementptr inbounds ptr, ptr %29, i64 %32
  store ptr %28, ptr %33, align 8
  %34 = load ptr, ptr @_ZN8TypeLong4LONGE, align 8
  %35 = load ptr, ptr %3, align 8
  %36 = load i32, ptr %4, align 4
  %37 = add nsw i32 %36, 1
  store i32 %37, ptr %4, align 4
  %38 = sext i32 %36 to i64
  %39 = getelementptr inbounds ptr, ptr %35, i64 %38
  store ptr %34, ptr %39, align 8
  %40 = load ptr, ptr @_ZN4Type4HALFE, align 8
  %41 = load ptr, ptr %3, align 8
  %42 = load i32, ptr %4, align 4
  %43 = add nsw i32 %42, 1
  store i32 %43, ptr %4, align 4
  %44 = sext i32 %42 to i64
  %45 = getelementptr inbounds ptr, ptr %41, i64 %44
  store ptr %40, ptr %45, align 8
  %46 = load ptr, ptr @_ZN7TypePtr7NOTNULLE, align 8
  %47 = load ptr, ptr %3, align 8
  %48 = load i32, ptr %4, align 4
  %49 = add nsw i32 %48, 1
  store i32 %49, ptr %4, align 4
  %50 = sext i32 %48 to i64
  %51 = getelementptr inbounds ptr, ptr %47, i64 %50
  store ptr %46, ptr %51, align 8
  %52 = load i32, ptr %2, align 4
  %53 = add nsw i32 5, %52
  %54 = load ptr, ptr %3, align 8
  %55 = call noundef ptr @_ZN9TypeTuple4makeEjPPK4Type(i32 noundef %53, ptr noundef %54)
  store ptr %55, ptr %5, align 8
  %56 = call noundef ptr @_ZN9TypeTuple6fieldsEj(i32 noundef 1)
  store ptr %56, ptr %3, align 8
  %57 = load ptr, ptr @_ZN7TypePtr7NOTNULLE, align 8
  %58 = load ptr, ptr %3, align 8
  %59 = getelementptr inbounds ptr, ptr %58, i64 5
  store ptr %57, ptr %59, align 8
  %60 = load ptr, ptr %3, align 8
  %61 = call noundef ptr @_ZN9TypeTuple4makeEjPPK4Type(i32 noundef 5, ptr noundef %60)
  store ptr %61, ptr %6, align 8
  %62 = load ptr, ptr %5, align 8
  %63 = load ptr, ptr %6, align 8
  %64 = call noundef ptr @_ZN8TypeFunc4makeEPK9TypeTupleS2_(ptr noundef %62, ptr noundef %63)
  ret ptr %64
}